target datalayout = "e-m:e-p270:32:32-p271:32:32-p272:64:64-i64:64-i128:128-f80:128-n8:16:32:64-S128"
target triple = "x86_64-pc-linux-gnu"

%"class.std::__cxx11::basic_string" = type { %"struct.std::__cxx11::basic_string<char>::_Alloc_hider", i64, %union.anon }
%"struct.std::__cxx11::basic_string<char>::_Alloc_hider" = type { ptr }
%union.anon = type { i64, [8 x i8] }
%class.V3Number = type { %class.V3NumberData, ptr, ptr }
%class.V3NumberData = type <{ %union.anon.0, i32, i8, i8, [2 x i8] }>
%union.anon.0 = type { %"class.std::__cxx11::basic_string" }
%class.V3ErrorCode = type { i8 }

@.str.15 = private unnamed_addr constant [114 x i8] c"generated/home/dtcxzyw/WorkSpace/Projects/compilers/llvm-opt-benchmark/bench/verilator/verilator/src/V3Number.cpp\00", align 1
@.str.51 = private unnamed_addr constant [50 x i8] c"Number operation called with same source and dest\00", align 1
@.str.52 = private unnamed_addr constant [70 x i8] c"Number operation called with non-logic (double or string) argument: '\00", align 1

; Function Attrs: mustprogress nounwind uwtable
define linkonce_odr dso_local noundef i32 @_ZNK12V3NumberData5widthEv(ptr noundef nonnull align 8 dereferenceable(40) %0) #7 comdat align 2 {
  %2 = alloca ptr, align 8
  store ptr %0, ptr %2, align 8, !tbaa !42
  %3 = load ptr, ptr %2, align 8
  %4 = getelementptr inbounds nuw %class.V3NumberData, ptr %3, i32 0, i32 1
  %5 = load i32, ptr %4, align 8, !tbaa !44
  ret i32 %5
}

; Function Attrs: mustprogress nounwind uwtable
define linkonce_odr dso_local noundef zeroext i8 @_ZNK12V3NumberData4typeEv(ptr noundef nonnull align 8 dereferenceable(40) %0) #7 comdat align 2 {
  %2 = alloca ptr, align 8
  store ptr %0, ptr %2, align 8, !tbaa !42
  %3 = load ptr, ptr %2, align 8
  %4 = getelementptr inbounds nuw %class.V3NumberData, ptr %3, i32 0, i32 2
  %5 = load i8, ptr %4, align 4, !tbaa !45
  ret i8 %5
}

; Function Attrs: mustprogress nounwind uwtable
define linkonce_odr dso_local noundef i32 @_ZNK8V3Number5widthEv(ptr noundef nonnull align 8 dereferenceable(56) %0) #7 comdat align 2 {
  %2 = alloca ptr, align 8
  store ptr %0, ptr %2, align 8, !tbaa !4
  %3 = load ptr, ptr %2, align 8
  %4 = getelementptr inbounds nuw %class.V3Number, ptr %3, i32 0, i32 0
  %5 = call noundef i32 @_ZNK12V3NumberData5widthEv(ptr noundef nonnull align 8 dereferenceable(40) %4)
  ret i32 %5
}

; Function Attrs: mustprogress nounwind uwtable
define linkonce_odr dso_local noundef zeroext i8 @_ZNK8V3Number8dataTypeEv(ptr noundef nonnull align 8 dereferenceable(56) %0) #7 comdat align 2 {
  %2 = alloca ptr, align 8
  store ptr %0, ptr %2, align 8, !tbaa !4
  %3 = load ptr, ptr %2, align 8
  %4 = getelementptr inbounds nuw %class.V3Number, ptr %3, i32 0, i32 0
  %5 = call noundef zeroext i8 @_ZNK12V3NumberData4typeEv(ptr noundef nonnull align 8 dereferenceable(40) %4)
  ret i8 %5
}

; Function Attrs: mustprogress nounwind uwtable
define linkonce_odr dso_local void @_ZN11V3ErrorCodeC2ENS_2enE(ptr noundef nonnull align 1 dereferenceable(1) %0, i8 noundef zeroext %1) unnamed_addr #7 comdat align 2 {
  %3 = alloca ptr, align 8
  %4 = alloca i8, align 1
  store ptr %0, ptr %3, align 8, !tbaa !123
  store i8 %1, ptr %4, align 1, !tbaa !125
  %5 = load ptr, ptr %3, align 8
  %6 = getelementptr inbounds nuw %class.V3ErrorCode, ptr %5, i32 0, i32 0
  %7 = load i8, ptr %4, align 1, !tbaa !125
  store i8 %7, ptr %6, align 1, !tbaa !127
  ret void
}

; Function Attrs: mustprogress uwtable
define dso_local noundef nonnull align 8 dereferenceable(56) ptr @_ZN8V3Number10opExtendXZERKS_j(ptr noundef nonnull align 8 dereferenceable(56) %0, ptr noundef nonnull align 8 dereferenceable(56) %1, i32 noundef %2) #4 align 2 {
  %4 = alloca ptr, align 8
  %5 = alloca ptr, align 8
  %6 = alloca i32, align 4
  %7 = alloca %class.V3ErrorCode, align 1
  %8 = alloca %class.V3ErrorCode, align 1
  %9 = alloca i32, align 4
  store ptr %0, ptr %4, align 8, !tbaa !4
  store ptr %1, ptr %5, align 8, !tbaa !4
  store i32 %2, ptr %6, align 4, !tbaa !33
  %10 = load ptr, ptr %4, align 8
  br label %11

11:                                               ; preds = %3
  %12 = load ptr, ptr %5, align 8, !tbaa !4
  %13 = icmp ne ptr %10, %12
  %14 = xor i1 %13, true
  %15 = xor i1 %14, true
  %16 = xor i1 %15, true
  %17 = zext i1 %16 to i64
  %18 = call i64 @llvm.expect.i64(i64 %17, i64 0)
  %19 = icmp ne i64 %18, 0
  br i1 %19, label %20, label %26

20:                                               ; preds = %11
  call void @_ZN11V3ErrorCodeC2ENS_2enE(ptr noundef nonnull align 1 dereferenceable(1) %7, i8 noundef zeroext 4)
  %21 = getelementptr inbounds nuw %class.V3ErrorCode, ptr %7, i32 0, i32 0
  %22 = load i8, ptr %21, align 1
  %23 = call noundef nonnull align 8 dereferenceable(112) ptr @_ZN7V3Error19v3errorPrepFileLineB5cxx11E11V3ErrorCodePKci(i8 %22, ptr noundef @.str.15, i32 noundef 2287)
  %24 = call noundef nonnull align 8 dereferenceable(112) ptr @_ZN7V3Error10v3errorStrB5cxx11Ev()
  %25 = call noundef nonnull align 8 dereferenceable(8) ptr @_ZStlsISt11char_traitsIcEERSt13basic_ostreamIcT_ES5_PKc(ptr noundef nonnull align 8 dereferenceable(8) %24, ptr noundef @.str.51)
  call void @_ZNK8V3Number15v3errorEndFatalERKNSt7__cxx1119basic_ostringstreamIcSt11char_traitsIcESaIcEEE(ptr noundef nonnull align 8 dereferenceable(56) %10, ptr noundef nonnull align 8 dereferenceable(112) %25) #25
  unreachable

26:                                               ; preds = %11
  br label %27

27:                                               ; preds = %26
  br label %28

28:                                               ; preds = %27
  %29 = load ptr, ptr %5, align 8, !tbaa !4
  %30 = call noundef zeroext i8 @_ZNK8V3Number8dataTypeEv(ptr noundef nonnull align 8 dereferenceable(56) %29)
  %31 = icmp eq i8 %30, 1
  %32 = xor i1 %31, true
  %33 = xor i1 %32, true
  %34 = xor i1 %33, true
  %35 = zext i1 %34 to i64
  %36 = call i64 @llvm.expect.i64(i64 %35, i64 0)
  %37 = icmp ne i64 %36, 0
  br i1 %37, label %38, label %47

38:                                               ; preds = %28
  call void @_ZN11V3ErrorCodeC2ENS_2enE(ptr noundef nonnull align 1 dereferenceable(1) %8, i8 noundef zeroext 4)
  %39 = getelementptr inbounds nuw %class.V3ErrorCode, ptr %8, i32 0, i32 0
  %40 = load i8, ptr %39, align 1
  %41 = call noundef nonnull align 8 dereferenceable(112) ptr @_ZN7V3Error19v3errorPrepFileLineB5cxx11E11V3ErrorCodePKci(i8 %40, ptr noundef @.str.15, i32 noundef 2288)
  %42 = call noundef nonnull align 8 dereferenceable(112) ptr @_ZN7V3Error10v3errorStrB5cxx11Ev()
  %43 = call noundef nonnull align 8 dereferenceable(8) ptr @_ZStlsISt11char_traitsIcEERSt13basic_ostreamIcT_ES5_PKc(ptr noundef nonnull align 8 dereferenceable(8) %42, ptr noundef @.str.52)
  %44 = load ptr, ptr %5, align 8, !tbaa !4
  %45 = call noundef nonnull align 8 dereferenceable(8) ptr @_ZlsRSoRK8V3Number(ptr noundef nonnull align 8 dereferenceable(8) %43, ptr noundef nonnull align 8 dereferenceable(56) %44)
  %46 = call noundef nonnull align 8 dereferenceable(8) ptr @_ZStlsISt11char_traitsIcEERSt13basic_ostreamIcT_ES5_c(ptr noundef nonnull align 8 dereferenceable(8) %45, i8 noundef signext 34)
  call void @_ZNK8V3Number15v3errorEndFatalERKNSt7__cxx1119basic_ostringstreamIcSt11char_traitsIcESaIcEEE(ptr noundef nonnull align 8 dereferenceable(56) %10, ptr noundef nonnull align 8 dereferenceable(112) %46) #25
  unreachable

47:                                               ; preds = %28
  br label %48

48:                                               ; preds = %47
  %49 = call noundef nonnull align 8 dereferenceable(56) ptr @_ZN8V3Number7setZeroEv(ptr noundef nonnull align 8 dereferenceable(56) %10)
  call void @llvm.lifetime.start.p0(i64 4, ptr %9) #3
  store i32 0, ptr %9, align 4, !tbaa !33
  br label %50

50:                                               ; preds = %61, %48
  %51 = load i32, ptr %9, align 4, !tbaa !33
  %52 = call noundef i32 @_ZNK8V3Number5widthEv(ptr noundef nonnull align 8 dereferenceable(56) %10)
  %53 = icmp slt i32 %51, %52
  br i1 %53, label %55, label %54

54:                                               ; preds = %50
  call void @llvm.lifetime.end.p0(i64 4, ptr %9) #3
  br label %64

55:                                               ; preds = %50
  %56 = load i32, ptr %9, align 4, !tbaa !33
  %57 = load ptr, ptr %5, align 8, !tbaa !4
  %58 = load i32, ptr %9, align 4, !tbaa !33
  %59 = load i32, ptr %6, align 4, !tbaa !33
  %60 = call noundef signext i8 @_ZNK8V3Number11bitIsExtendEii(ptr noundef nonnull align 8 dereferenceable(56) %57, i32 noundef %58, i32 noundef %59)
  call void @_ZN8V3Number6setBitEic(ptr noundef nonnull align 8 dereferenceable(56) %10, i32 noundef %56, i8 noundef signext %60)
  br label %61

61:                                               ; preds = %55
  %62 = load i32, ptr %9, align 4, !tbaa !33
  %63 = add nsw i32 %62, 1
  store i32 %63, ptr %9, align 4, !tbaa !33
  br label %50, !llvm.loop !295

64:                                               ; preds = %54
  ret ptr %10
}