; Function Attrs: mustprogress uwtable
define dso_local noundef nonnull align 8 dereferenceable(56) ptr @_ZN8V3Number10opExtendXZERKS_j(ptr noundef nonnull returned align 8 dereferenceable(56) %0, ptr noundef nonnull align 8 dereferenceable(56) %1, i32 noundef %2) local_unnamed_addr #3 align 2 {
  %.not = icmp eq ptr %0, %1
  br i1 %.not, label %4, label %8, !prof !134

4:                                                ; preds = %3
  %5 = tail call noundef nonnull align 8 dereferenceable(112) ptr @_ZN7V3Error19v3errorPrepFileLineB5cxx11E11V3ErrorCodePKci(i8 4, ptr noundef nonnull @.str.15, i32 noundef 2287)
  %6 = tail call noundef nonnull align 8 dereferenceable(112) ptr @_ZN7V3Error10v3errorStrB5cxx11Ev()
  %7 = tail call noundef nonnull align 8 dereferenceable(8) ptr @_ZStlsISt11char_traitsIcEERSt13basic_ostreamIcT_ES5_PKc(ptr noundef nonnull align 8 dereferenceable(8) %6, ptr noundef nonnull @.str.51)
  tail call void @_ZNK8V3Number15v3errorEndFatalERKNSt7__cxx1119basic_ostringstreamIcSt11char_traitsIcESaIcEEE(ptr noundef nonnull align 8 dereferenceable(56) %0, ptr noundef nonnull align 8 dereferenceable(112) %7) #34
  unreachable

8:                                                ; preds = %3
  %9 = getelementptr inbounds nuw i8, ptr %1, i64 36
  %10 = load i8, ptr %9, align 4, !tbaa !40
  %.not9 = icmp eq i8 %10, 1
  br i1 %.not9, label %17, label %11, !prof !41

11:                                               ; preds = %8
  %12 = tail call noundef nonnull align 8 dereferenceable(112) ptr @_ZN7V3Error19v3errorPrepFileLineB5cxx11E11V3ErrorCodePKci(i8 4, ptr noundef nonnull @.str.15, i32 noundef 2288)
  %13 = tail call noundef nonnull align 8 dereferenceable(112) ptr @_ZN7V3Error10v3errorStrB5cxx11Ev()
  %14 = tail call noundef nonnull align 8 dereferenceable(8) ptr @_ZStlsISt11char_traitsIcEERSt13basic_ostreamIcT_ES5_PKc(ptr noundef nonnull align 8 dereferenceable(8) %13, ptr noundef nonnull @.str.52)
  %15 = tail call noundef nonnull align 8 dereferenceable(8) ptr @_ZlsRSoRK8V3Number(ptr noundef nonnull align 8 dereferenceable(8) %14, ptr noundef nonnull align 8 dereferenceable(56) %1)
  %16 = tail call noundef nonnull align 8 dereferenceable(8) ptr @_ZStlsISt11char_traitsIcEERSt13basic_ostreamIcT_ES5_c(ptr noundef nonnull align 8 dereferenceable(8) %15, i8 noundef signext 34)
  tail call void @_ZNK8V3Number15v3errorEndFatalERKNSt7__cxx1119basic_ostringstreamIcSt11char_traitsIcESaIcEEE(ptr noundef nonnull align 8 dereferenceable(56) %0, ptr noundef nonnull align 8 dereferenceable(112) %16) #34
  unreachable

17:                                               ; preds = %8
  %18 = tail call noundef nonnull align 8 dereferenceable(56) ptr @_ZN8V3Number7setZeroEv(ptr noundef nonnull align 8 dereferenceable(56) %0)
  %19 = getelementptr inbounds nuw i8, ptr %0, i64 32
  %20 = load i32, ptr %19, align 8, !tbaa !39
  %21 = icmp sgt i32 %20, 0
  br i1 %21, label %.lr.ph, label %._crit_edge

._crit_edge:                                      ; preds = %.lr.ph, %17
  ret ptr %0

.lr.ph:                                           ; preds = %17, %.lr.ph
  %.011 = phi i32 [ %23, %.lr.ph ], [ 0, %17 ]
  %22 = tail call noundef signext i8 @_ZNK8V3Number11bitIsExtendEii(ptr noundef nonnull align 8 dereferenceable(56) %1, i32 noundef %.011, i32 noundef %2)
  tail call void @_ZN8V3Number6setBitEic(ptr noundef nonnull align 8 dereferenceable(56) %0, i32 noundef %.011, i8 noundef signext %22)
  %23 = add nuw nsw i32 %.011, 1
  %24 = load i32, ptr %19, align 8, !tbaa !39
  %25 = icmp slt i32 %23, %24
  br i1 %25, label %.lr.ph, label %._crit_edge, !llvm.loop !349
}